target datalayout = "e-m:e-p270:32:32-p271:32:32-p272:64:64-i64:64-i128:128-f80:128-n8:16:32:64-S128"
target triple = "x86_64-pc-linux-gnu"

%struct.H5FL_blk_head_t = type { i8, i32, i32, i64, ptr, ptr }
%struct.H5FL_seq_head_t = type { %struct.H5FL_blk_head_t, i64 }

@H5FL_init_g = global i8 0, align 1
@H5_libterm_g = external global i8, align 1
@.str.2 = private unnamed_addr constant [98 x i8] c"generated/home/dtcxzyw/WorkSpace/Projects/compilers/llvm-opt-benchmark/bench/hdf5/hdf5/src/H5FL.c\00", align 1
@H5E_RESOURCE_g = external global i64, align 8
@H5E_NOSPACE_g = external global i64, align 8
@__func__.H5FL_blk_realloc = private unnamed_addr constant [17 x i8] c"H5FL_blk_realloc\00", align 1
@.str.9 = private unnamed_addr constant [35 x i8] c"memory allocation failed for block\00", align 1

; Function Attrs: nounwind uwtable
define ptr @H5FL_blk_realloc(ptr noundef %0, ptr noundef %1, i64 noundef %2) #0 {
  %4 = alloca ptr, align 8
  %5 = alloca ptr, align 8
  %6 = alloca ptr, align 8
  %7 = alloca i64, align 8
  %8 = alloca ptr, align 8
  %9 = alloca i8, align 1
  %10 = alloca ptr, align 8
  %11 = alloca i64, align 8
  %12 = alloca i32, align 4
  store ptr %0, ptr %5, align 8, !tbaa !79
  store ptr %1, ptr %6, align 8, !tbaa !69
  store i64 %2, ptr %7, align 8, !tbaa !11
  call void @llvm.lifetime.start.p0(i64 8, ptr %8) #9
  store ptr null, ptr %8, align 8, !tbaa !69
  call void @llvm.lifetime.start.p0(i64 1, ptr %9) #9
  store i8 0, ptr %9, align 1, !tbaa !7
  %13 = load i8, ptr @H5FL_init_g, align 1, !tbaa !7, !range !9, !noundef !10
  %14 = trunc i8 %13 to i1
  br i1 %14, label %19, label %15

15:                                               ; preds = %3
  %16 = load i8, ptr @H5_libterm_g, align 1, !tbaa !7, !range !9, !noundef !10
  %17 = trunc i8 %16 to i1
  %18 = xor i1 %17, true
  br label %19

19:                                               ; preds = %15, %3
  %20 = phi i1 [ false, %3 ], [ %18, %15 ]
  %21 = xor i1 %20, true
  %22 = xor i1 %21, true
  %23 = zext i1 %22 to i32
  %24 = sext i32 %23 to i64
  %25 = call i64 @llvm.expect.i64(i64 %24, i64 0)
  %26 = icmp ne i64 %25, 0
  br i1 %26, label %27, label %28

27:                                               ; preds = %19
  store i8 1, ptr @H5FL_init_g, align 1, !tbaa !7
  br label %28

28:                                               ; preds = %27, %19
  %29 = load i8, ptr @H5FL_init_g, align 1, !tbaa !7, !range !9, !noundef !10
  %30 = trunc i8 %29 to i1
  br i1 %30, label %35, label %31

31:                                               ; preds = %28
  %32 = load i8, ptr @H5_libterm_g, align 1, !tbaa !7, !range !9, !noundef !10
  %33 = trunc i8 %32 to i1
  %34 = xor i1 %33, true
  br label %35

35:                                               ; preds = %31, %28
  %36 = phi i1 [ true, %28 ], [ %34, %31 ]
  %37 = xor i1 %36, true
  %38 = xor i1 %37, true
  %39 = zext i1 %38 to i32
  %40 = sext i32 %39 to i64
  %41 = call i64 @llvm.expect.i64(i64 %40, i64 1)
  %42 = icmp ne i64 %41, 0
  br i1 %42, label %43, label %110

43:                                               ; preds = %35
  %44 = load ptr, ptr %6, align 8, !tbaa !69
  %45 = icmp ne ptr %44, null
  br i1 %45, label %46, label %104

46:                                               ; preds = %43
  call void @llvm.lifetime.start.p0(i64 8, ptr %10) #9
  %47 = load ptr, ptr %6, align 8, !tbaa !69
  %48 = getelementptr inbounds i8, ptr %47, i64 -8
  store ptr %48, ptr %10, align 8, !tbaa !90
  %49 = load i64, ptr %7, align 8, !tbaa !11
  %50 = load ptr, ptr %10, align 8, !tbaa !90
  %51 = load i64, ptr %50, align 8, !tbaa !91
  %52 = icmp ne i64 %49, %51
  br i1 %52, label %53, label %98

53:                                               ; preds = %46
  call void @llvm.lifetime.start.p0(i64 8, ptr %11) #9
  %54 = load ptr, ptr %5, align 8, !tbaa !79
  %55 = load i64, ptr %7, align 8, !tbaa !11
  %56 = call noalias ptr @H5FL_blk_malloc(ptr noundef %54, i64 noundef %55)
  store ptr %56, ptr %8, align 8, !tbaa !69
  %57 = icmp eq ptr null, %56
  br i1 %57, label %58, label %77

58:                                               ; preds = %53
  br label %59

59:                                               ; preds = %58
  br label %60

60:                                               ; preds = %59
  br label %61

61:                                               ; preds = %60
  %62 = load i64, ptr @H5E_RESOURCE_g, align 8, !tbaa !11
  %63 = load i64, ptr @H5E_NOSPACE_g, align 8, !tbaa !11
  %64 = call i32 (ptr, ptr, i32, i64, i64, ptr, ...) @H5E_printf_stack(ptr noundef @.str.2, ptr noundef @__func__.H5FL_blk_realloc, i32 noundef 937, i64 noundef %62, i64 noundef %63, ptr noundef @.str.9)
  br label %65

65:                                               ; preds = %61
  br label %66

66:                                               ; preds = %65
  store i8 1, ptr %9, align 1, !tbaa !7
  %67 = load i8, ptr %9, align 1, !tbaa !7, !range !9, !noundef !10
  %68 = trunc i8 %67 to i1
  %69 = zext i1 %68 to i8
  store i8 %69, ptr %9, align 1, !tbaa !7
  br label %70

70:                                               ; preds = %66
  br label %71

71:                                               ; preds = %70
  br label %72

72:                                               ; preds = %71
  store ptr null, ptr %8, align 8, !tbaa !69
  store i32 10, ptr %12, align 4
  br label %95

73:                                               ; No predecessors!
  br label %74

74:                                               ; preds = %73
  br label %75

75:                                               ; preds = %74
  br label %76

76:                                               ; preds = %75
  br label %77

77:                                               ; preds = %76, %53
  %78 = load i64, ptr %7, align 8, !tbaa !11
  %79 = load ptr, ptr %10, align 8, !tbaa !90
  %80 = load i64, ptr %79, align 8, !tbaa !91
  %81 = icmp ult i64 %78, %80
  br i1 %81, label %82, label %84

82:                                               ; preds = %77
  %83 = load i64, ptr %7, align 8, !tbaa !11
  br label %87

84:                                               ; preds = %77
  %85 = load ptr, ptr %10, align 8, !tbaa !90
  %86 = load i64, ptr %85, align 8, !tbaa !91
  br label %87

87:                                               ; preds = %84, %82
  %88 = phi i64 [ %83, %82 ], [ %86, %84 ]
  store i64 %88, ptr %11, align 8, !tbaa !11
  %89 = load ptr, ptr %8, align 8, !tbaa !69
  %90 = load ptr, ptr %6, align 8, !tbaa !69
  %91 = load i64, ptr %11, align 8, !tbaa !11
  call void @llvm.memcpy.p0.p0.i64(ptr align 1 %89, ptr align 1 %90, i64 %91, i1 false)
  %92 = load ptr, ptr %5, align 8, !tbaa !79
  %93 = load ptr, ptr %6, align 8, !tbaa !69
  %94 = call ptr @H5FL_blk_free(ptr noundef %92, ptr noundef %93)
  store i32 0, ptr %12, align 4
  br label %95

95:                                               ; preds = %72, %87
  call void @llvm.lifetime.end.p0(i64 8, ptr %11) #9
  %96 = load i32, ptr %12, align 4
  switch i32 %96, label %101 [
    i32 0, label %97
  ]

97:                                               ; preds = %95
  br label %100

98:                                               ; preds = %46
  %99 = load ptr, ptr %6, align 8, !tbaa !69
  store ptr %99, ptr %8, align 8, !tbaa !69
  br label %100

100:                                              ; preds = %98, %97
  store i32 0, ptr %12, align 4
  br label %101

101:                                              ; preds = %100, %95
  call void @llvm.lifetime.end.p0(i64 8, ptr %10) #9
  %102 = load i32, ptr %12, align 4
  switch i32 %102, label %112 [
    i32 0, label %103
    i32 10, label %109
  ]

103:                                              ; preds = %101
  br label %108

104:                                              ; preds = %43
  %105 = load ptr, ptr %5, align 8, !tbaa !79
  %106 = load i64, ptr %7, align 8, !tbaa !11
  %107 = call noalias ptr @H5FL_blk_malloc(ptr noundef %105, i64 noundef %106)
  store ptr %107, ptr %8, align 8, !tbaa !69
  br label %108

108:                                              ; preds = %104, %103
  br label %109

109:                                              ; preds = %108, %101
  br label %110

110:                                              ; preds = %109, %35
  %111 = load ptr, ptr %8, align 8, !tbaa !69
  store ptr %111, ptr %4, align 8
  store i32 1, ptr %12, align 4
  br label %112

112:                                              ; preds = %110, %101
  call void @llvm.lifetime.end.p0(i64 1, ptr %9) #9
  call void @llvm.lifetime.end.p0(i64 8, ptr %8) #9
  %113 = load ptr, ptr %4, align 8
  ret ptr %113
}

; Function Attrs: nounwind uwtable
define ptr @H5FL_seq_realloc(ptr noundef %0, ptr noundef %1, i64 noundef %2) #0 {
  %4 = alloca ptr, align 8
  %5 = alloca ptr, align 8
  %6 = alloca i64, align 8
  %7 = alloca ptr, align 8
  store ptr %0, ptr %4, align 8, !tbaa !118
  store ptr %1, ptr %5, align 8, !tbaa !69
  store i64 %2, ptr %6, align 8, !tbaa !11
  call void @llvm.lifetime.start.p0(i64 8, ptr %7) #9
  store ptr null, ptr %7, align 8, !tbaa !69
  %8 = load i8, ptr @H5FL_init_g, align 1, !tbaa !7, !range !9, !noundef !10
  %9 = trunc i8 %8 to i1
  br i1 %9, label %14, label %10

10:                                               ; preds = %3
  %11 = load i8, ptr @H5_libterm_g, align 1, !tbaa !7, !range !9, !noundef !10
  %12 = trunc i8 %11 to i1
  %13 = xor i1 %12, true
  br label %14

14:                                               ; preds = %10, %3
  %15 = phi i1 [ false, %3 ], [ %13, %10 ]
  %16 = xor i1 %15, true
  %17 = xor i1 %16, true
  %18 = zext i1 %17 to i32
  %19 = sext i32 %18 to i64
  %20 = call i64 @llvm.expect.i64(i64 %19, i64 0)
  %21 = icmp ne i64 %20, 0
  br i1 %21, label %22, label %23

22:                                               ; preds = %14
  store i8 1, ptr @H5FL_init_g, align 1, !tbaa !7
  br label %23

23:                                               ; preds = %22, %14
  %24 = load i8, ptr @H5FL_init_g, align 1, !tbaa !7, !range !9, !noundef !10
  %25 = trunc i8 %24 to i1
  br i1 %25, label %30, label %26

26:                                               ; preds = %23
  %27 = load i8, ptr @H5_libterm_g, align 1, !tbaa !7, !range !9, !noundef !10
  %28 = trunc i8 %27 to i1
  %29 = xor i1 %28, true
  br label %30

30:                                               ; preds = %26, %23
  %31 = phi i1 [ true, %23 ], [ %29, %26 ]
  %32 = xor i1 %31, true
  %33 = xor i1 %32, true
  %34 = zext i1 %33 to i32
  %35 = sext i32 %34 to i64
  %36 = call i64 @llvm.expect.i64(i64 %35, i64 1)
  %37 = icmp ne i64 %36, 0
  br i1 %37, label %38, label %48

38:                                               ; preds = %30
  %39 = load ptr, ptr %4, align 8, !tbaa !118
  %40 = getelementptr inbounds nuw %struct.H5FL_seq_head_t, ptr %39, i32 0, i32 0
  %41 = load ptr, ptr %5, align 8, !tbaa !69
  %42 = load ptr, ptr %4, align 8, !tbaa !118
  %43 = getelementptr inbounds nuw %struct.H5FL_seq_head_t, ptr %42, i32 0, i32 1
  %44 = load i64, ptr %43, align 8, !tbaa !120
  %45 = load i64, ptr %6, align 8, !tbaa !11
  %46 = mul i64 %44, %45
  %47 = call ptr @H5FL_blk_realloc(ptr noundef %40, ptr noundef %41, i64 noundef %46)
  store ptr %47, ptr %7, align 8, !tbaa !69
  br label %48

48:                                               ; preds = %38, %30
  %49 = load ptr, ptr %7, align 8, !tbaa !69
  call void @llvm.lifetime.end.p0(i64 8, ptr %7) #9
  ret ptr %49
}