; Function Attrs: nounwind uwtable
define ptr @H5FL_seq_realloc(ptr noundef %0, ptr noundef %1, i64 noundef %2) local_unnamed_addr #0 {
  %4 = load i8, ptr @H5FL_init_g, align 1, !tbaa !3, !range !7, !noundef !8
  %5 = trunc nuw i8 %4 to i1
  %6 = load i8, ptr @H5_libterm_g, align 1, !range !7
  %7 = trunc nuw i8 %6 to i1
  %8 = select i1 %5, i1 true, i1 %7
  br i1 %8, label %11, label %.thread4, !prof !15

.thread4:                                         ; preds = %3
  store i8 1, ptr @H5FL_init_g, align 1, !tbaa !3
  %9 = getelementptr inbounds nuw i8, ptr %0, i64 40
  %10 = load i64, ptr %9, align 8, !tbaa !121
  br label %18

11:                                               ; preds = %3
  %12 = xor i1 %7, true
  %13 = select i1 %5, i1 true, i1 %12
  br i1 %13, label %14, label %H5FL_blk_realloc.exit, !prof !87

14:                                               ; preds = %11
  %15 = getelementptr inbounds nuw i8, ptr %0, i64 40
  %16 = load i64, ptr %15, align 8, !tbaa !121
  %17 = select i1 %5, i1 true, i1 %7
  br i1 %17, label %18, label %.thread.i, !prof !87

.thread.i:                                        ; preds = %14
  store i8 1, ptr @H5FL_init_g, align 1, !tbaa !3
  br label %18

18:                                               ; preds = %.thread4, %14, %.thread.i
  %.pn = phi i64 [ %10, %.thread4 ], [ %16, %14 ], [ %16, %.thread.i ]
  %19 = mul i64 %.pn, %2
  %.not.i = icmp eq ptr %1, null
  br i1 %.not.i, label %32, label %20

20:                                               ; preds = %18
  %21 = getelementptr inbounds i8, ptr %1, i64 -8
  %22 = load i64, ptr %21, align 8, !tbaa !96
  %.not29.i = icmp eq i64 %19, %22
  br i1 %.not29.i, label %H5FL_blk_realloc.exit, label %23

23:                                               ; preds = %20
  %24 = tail call noalias ptr @H5FL_blk_malloc(ptr noundef nonnull %0, i64 noundef %19)
  %.not30.i = icmp eq ptr %24, null
  br i1 %.not30.i, label %25, label %29

25:                                               ; preds = %23
  %26 = load i64, ptr @H5E_RESOURCE_g, align 8, !tbaa !86
  %27 = load i64, ptr @H5E_NOSPACE_g, align 8, !tbaa !86
  %28 = tail call i32 (ptr, ptr, i32, i64, i64, ptr, ...) @H5E_printf_stack(ptr noundef nonnull @.str.2, ptr noundef nonnull @__func__.H5FL_blk_realloc, i32 noundef 937, i64 noundef %26, i64 noundef %27, ptr noundef nonnull @.str.9) #10
  br label %H5FL_blk_realloc.exit

29:                                               ; preds = %23
  %30 = load i64, ptr %21, align 8, !tbaa !96
  %..i = tail call i64 @llvm.umin.i64(i64 %19, i64 %30)
  tail call void @llvm.memcpy.p0.p0.i64(ptr nonnull align 1 %24, ptr nonnull align 1 %1, i64 %..i, i1 false)
  %31 = tail call ptr @H5FL_blk_free(ptr noundef nonnull %0, ptr noundef nonnull %1)
  br label %H5FL_blk_realloc.exit

32:                                               ; preds = %18
  %33 = tail call noalias ptr @H5FL_blk_malloc(ptr noundef nonnull %0, i64 noundef %19)
  br label %H5FL_blk_realloc.exit

H5FL_blk_realloc.exit:                            ; preds = %32, %29, %25, %20, %11
  %.0 = phi ptr [ null, %11 ], [ %33, %32 ], [ %1, %20 ], [ null, %25 ], [ %24, %29 ]
  ret ptr %.0
}